target datalayout = "e-m:e-p270:32:32-p271:32:32-p272:64:64-i64:64-i128:128-f80:128-n8:16:32:64-S128"
target triple = "x86_64-pc-linux-gnu"

; Function Attrs: nounwind uwtable
define dso_local i32 @LZ4_compress_HC_continue(ptr noundef %0, ptr noundef %1, ptr noundef %2, i32 noundef %3, i32 noundef %4) #0 {
  %6 = alloca i32, align 4
  %7 = alloca ptr, align 8
  %8 = alloca ptr, align 8
  %9 = alloca ptr, align 8
  %10 = alloca i32, align 4
  %11 = alloca i32, align 4
  store ptr %0, ptr %7, align 8, !tbaa !34
  store ptr %1, ptr %8, align 8, !tbaa !4
  store ptr %2, ptr %9, align 8, !tbaa !4
  store i32 %3, ptr %10, align 4, !tbaa !9
  store i32 %4, ptr %11, align 4, !tbaa !9
  %12 = load i32, ptr %11, align 4, !tbaa !9
  %13 = load i32, ptr %10, align 4, !tbaa !9
  %14 = call i32 @LZ4_compressBound(i32 noundef %13)
  %15 = icmp slt i32 %12, %14
  br i1 %15, label %16, label %22

16:                                               ; preds = %5
  %17 = load ptr, ptr %7, align 8, !tbaa !34
  %18 = load ptr, ptr %8, align 8, !tbaa !4
  %19 = load ptr, ptr %9, align 8, !tbaa !4
  %20 = load i32, ptr %11, align 4, !tbaa !9
  %21 = call i32 @LZ4_compressHC_continue_generic(ptr noundef %17, ptr noundef %18, ptr noundef %19, ptr noundef %10, i32 noundef %20, i32 noundef 1)
  store i32 %21, ptr %6, align 4
  br label %28

22:                                               ; preds = %5
  %23 = load ptr, ptr %7, align 8, !tbaa !34
  %24 = load ptr, ptr %8, align 8, !tbaa !4
  %25 = load ptr, ptr %9, align 8, !tbaa !4
  %26 = load i32, ptr %11, align 4, !tbaa !9
  %27 = call i32 @LZ4_compressHC_continue_generic(ptr noundef %23, ptr noundef %24, ptr noundef %25, ptr noundef %10, i32 noundef %26, i32 noundef 0)
  store i32 %27, ptr %6, align 4
  br label %28

28:                                               ; preds = %22, %16
  %29 = load i32, ptr %6, align 4
  ret i32 %29
}

; Function Attrs: nounwind uwtable
define dso_local i32 @LZ4_compressHC_continue(ptr noundef %0, ptr noundef %1, ptr noundef %2, i32 noundef %3) #0 {
  %5 = alloca ptr, align 8
  %6 = alloca ptr, align 8
  %7 = alloca ptr, align 8
  %8 = alloca i32, align 4
  store ptr %0, ptr %5, align 8, !tbaa !34
  store ptr %1, ptr %6, align 8, !tbaa !4
  store ptr %2, ptr %7, align 8, !tbaa !4
  store i32 %3, ptr %8, align 4, !tbaa !9
  %9 = load ptr, ptr %5, align 8, !tbaa !34
  %10 = load ptr, ptr %6, align 8, !tbaa !4
  %11 = load ptr, ptr %7, align 8, !tbaa !4
  %12 = load i32, ptr %8, align 4, !tbaa !9
  %13 = load i32, ptr %8, align 4, !tbaa !9
  %14 = call i32 @LZ4_compressBound(i32 noundef %13)
  %15 = call i32 @LZ4_compress_HC_continue(ptr noundef %9, ptr noundef %10, ptr noundef %11, i32 noundef %12, i32 noundef %14)
  ret i32 %15
}