; Function Attrs: nounwind uwtable
define dso_local i32 @LZ4_compressHC_continue(ptr noundef %0, ptr noundef %1, ptr noundef %2, i32 noundef %3) local_unnamed_addr #4 {
  %5 = alloca i32, align 4
  %6 = tail call i32 @LZ4_compressBound(i32 noundef %3) #18
  call void @llvm.lifetime.start.p0(i64 4, ptr nonnull %5)
  store i32 %3, ptr %5, align 4, !tbaa !17
  %7 = tail call i32 @LZ4_compressBound(i32 noundef %3) #18
  %8 = icmp slt i32 %6, %7
  %..i = zext i1 %8 to i32
  %9 = call fastcc i32 @LZ4_compressHC_continue_generic(ptr noundef %0, ptr noundef %1, ptr noundef %2, ptr noundef nonnull %5, i32 noundef %6, i32 noundef %..i)
  call void @llvm.lifetime.end.p0(i64 4, ptr nonnull %5)
  ret i32 %9
}